target datalayout = "e-m:e-p270:32:32-p271:32:32-p272:64:64-i64:64-i128:128-f80:128-n8:16:32:64-S128"
target triple = "x86_64-pc-linux-gnu"

%struct.evp_rand_ctx_st = type { ptr, ptr, ptr, %struct.CRYPTO_REF_COUNT, ptr }
%struct.CRYPTO_REF_COUNT = type { i32 }
%struct.evp_rand_st = type { ptr, i32, ptr, ptr, %struct.CRYPTO_REF_COUNT, ptr, ptr, ptr, ptr, ptr, ptr, ptr, ptr, ptr, ptr, ptr, ptr, ptr, ptr, ptr, ptr, ptr, ptr, ptr, ptr }
%struct.ossl_param_st = type { ptr, i32, ptr, i64, i64 }

@.str = private unnamed_addr constant [33 x i8] c"../openssl/crypto/evp/evp_rand.c\00", align 1
@.str.2 = private unnamed_addr constant [12 x i8] c"max_request\00", align 1
@__func__.evp_rand_generate_locked = private unnamed_addr constant [25 x i8] c"evp_rand_generate_locked\00", align 1

; Function Attrs: nounwind uwtable
define internal i32 @evp_rand_get_ctx_params_locked(ptr noundef %0, ptr noundef %1) #0 {
  %3 = alloca ptr, align 8
  %4 = alloca ptr, align 8
  store ptr %0, ptr %3, align 8, !tbaa !3
  store ptr %1, ptr %4, align 8, !tbaa !59
  %5 = load ptr, ptr %3, align 8, !tbaa !3
  %6 = getelementptr inbounds nuw %struct.evp_rand_ctx_st, ptr %5, i32 0, i32 0
  %7 = load ptr, ptr %6, align 8, !tbaa !8
  %8 = getelementptr inbounds nuw %struct.evp_rand_st, ptr %7, i32 0, i32 20
  %9 = load ptr, ptr %8, align 8, !tbaa !50
  %10 = load ptr, ptr %3, align 8, !tbaa !3
  %11 = getelementptr inbounds nuw %struct.evp_rand_ctx_st, ptr %10, i32 0, i32 1
  %12 = load ptr, ptr %11, align 8, !tbaa !18
  %13 = load ptr, ptr %4, align 8, !tbaa !59
  %14 = call i32 %9(ptr noundef %12, ptr noundef %13)
  ret i32 %14
}

; Function Attrs: nounwind uwtable
define internal i32 @evp_rand_generate_locked(ptr noundef %0, ptr noundef %1, i64 noundef %2, i32 noundef %3, i32 noundef %4, ptr noundef %5, i64 noundef %6) #0 {
  %8 = alloca i32, align 4
  %9 = alloca ptr, align 8
  %10 = alloca ptr, align 8
  %11 = alloca i64, align 8
  %12 = alloca i32, align 4
  %13 = alloca i32, align 4
  %14 = alloca ptr, align 8
  %15 = alloca i64, align 8
  %16 = alloca i64, align 8
  %17 = alloca i64, align 8
  %18 = alloca [2 x %struct.ossl_param_st], align 16
  %19 = alloca %struct.ossl_param_st, align 8
  %20 = alloca i32, align 4
  store ptr %0, ptr %9, align 8, !tbaa !3
  store ptr %1, ptr %10, align 8, !tbaa !21
  store i64 %2, ptr %11, align 8, !tbaa !65
  store i32 %3, ptr %12, align 4, !tbaa !22
  store i32 %4, ptr %13, align 4, !tbaa !22
  store ptr %5, ptr %14, align 8, !tbaa !21
  store i64 %6, ptr %15, align 8, !tbaa !65
  call void @llvm.lifetime.start.p0(i64 8, ptr %16) #6
  call void @llvm.lifetime.start.p0(i64 8, ptr %17) #6
  store i64 0, ptr %17, align 8, !tbaa !65
  call void @llvm.lifetime.start.p0(i64 80, ptr %18) #6
  call void @llvm.memset.p0.i64(ptr align 16 %18, i8 0, i64 80, i1 false)
  %21 = getelementptr inbounds [2 x %struct.ossl_param_st], ptr %18, i64 0, i64 0
  call void @llvm.lifetime.start.p0(i64 40, ptr %19) #6
  call void @OSSL_PARAM_construct_size_t(ptr dead_on_unwind writable sret(%struct.ossl_param_st) align 8 %19, ptr noundef @.str.2, ptr noundef %17)
  call void @llvm.memcpy.p0.p0.i64(ptr align 16 %21, ptr align 8 %19, i64 40, i1 false), !tbaa.struct !67
  call void @llvm.lifetime.end.p0(i64 40, ptr %19) #6
  %22 = load ptr, ptr %9, align 8, !tbaa !3
  %23 = getelementptr inbounds [2 x %struct.ossl_param_st], ptr %18, i64 0, i64 0
  %24 = call i32 @evp_rand_get_ctx_params_locked(ptr noundef %22, ptr noundef %23)
  %25 = icmp ne i32 %24, 0
  br i1 %25, label %26, label %29

26:                                               ; preds = %7
  %27 = load i64, ptr %17, align 8, !tbaa !65
  %28 = icmp eq i64 %27, 0
  br i1 %28, label %29, label %30

29:                                               ; preds = %26, %7
  call void @ERR_new()
  call void @ERR_set_debug(ptr noundef @.str, i32 noundef 565, ptr noundef @__func__.evp_rand_generate_locked)
  call void (i32, i32, ptr, ...) @ERR_set_error(i32 noundef 6, i32 noundef 215, ptr noundef null)
  store i32 0, ptr %8, align 4
  store i32 1, ptr %20, align 4
  br label %70

30:                                               ; preds = %26
  br label %31

31:                                               ; preds = %62, %30
  %32 = load i64, ptr %11, align 8, !tbaa !65
  %33 = icmp ugt i64 %32, 0
  br i1 %33, label %34, label %69

34:                                               ; preds = %31
  %35 = load i64, ptr %11, align 8, !tbaa !65
  %36 = load i64, ptr %17, align 8, !tbaa !65
  %37 = icmp ugt i64 %35, %36
  br i1 %37, label %38, label %40

38:                                               ; preds = %34
  %39 = load i64, ptr %17, align 8, !tbaa !65
  br label %42

40:                                               ; preds = %34
  %41 = load i64, ptr %11, align 8, !tbaa !65
  br label %42

42:                                               ; preds = %40, %38
  %43 = phi i64 [ %39, %38 ], [ %41, %40 ]
  store i64 %43, ptr %16, align 8, !tbaa !65
  %44 = load ptr, ptr %9, align 8, !tbaa !3
  %45 = getelementptr inbounds nuw %struct.evp_rand_ctx_st, ptr %44, i32 0, i32 0
  %46 = load ptr, ptr %45, align 8, !tbaa !8
  %47 = getelementptr inbounds nuw %struct.evp_rand_st, ptr %46, i32 0, i32 10
  %48 = load ptr, ptr %47, align 8, !tbaa !41
  %49 = load ptr, ptr %9, align 8, !tbaa !3
  %50 = getelementptr inbounds nuw %struct.evp_rand_ctx_st, ptr %49, i32 0, i32 1
  %51 = load ptr, ptr %50, align 8, !tbaa !18
  %52 = load ptr, ptr %10, align 8, !tbaa !21
  %53 = load i64, ptr %16, align 8, !tbaa !65
  %54 = load i32, ptr %12, align 4, !tbaa !22
  %55 = load i32, ptr %13, align 4, !tbaa !22
  %56 = load ptr, ptr %14, align 8, !tbaa !21
  %57 = load i64, ptr %15, align 8, !tbaa !65
  %58 = call i32 %48(ptr noundef %51, ptr noundef %52, i64 noundef %53, i32 noundef %54, i32 noundef %55, ptr noundef %56, i64 noundef %57)
  %59 = icmp ne i32 %58, 0
  br i1 %59, label %61, label %60

60:                                               ; preds = %42
  call void @ERR_new()
  call void @ERR_set_debug(ptr noundef @.str, i32 noundef 572, ptr noundef @__func__.evp_rand_generate_locked)
  call void (i32, i32, ptr, ...) @ERR_set_error(i32 noundef 6, i32 noundef 214, ptr noundef null)
  store i32 0, ptr %8, align 4
  store i32 1, ptr %20, align 4
  br label %70

61:                                               ; preds = %42
  store i32 0, ptr %13, align 4, !tbaa !22
  br label %62

62:                                               ; preds = %61
  %63 = load i64, ptr %16, align 8, !tbaa !65
  %64 = load i64, ptr %11, align 8, !tbaa !65
  %65 = sub i64 %64, %63
  store i64 %65, ptr %11, align 8, !tbaa !65
  %66 = load i64, ptr %16, align 8, !tbaa !65
  %67 = load ptr, ptr %10, align 8, !tbaa !21
  %68 = getelementptr inbounds nuw i8, ptr %67, i64 %66
  store ptr %68, ptr %10, align 8, !tbaa !21
  br label %31, !llvm.loop !68

69:                                               ; preds = %31
  store i32 1, ptr %8, align 4
  store i32 1, ptr %20, align 4
  br label %70

70:                                               ; preds = %69, %60, %29
  call void @llvm.lifetime.end.p0(i64 80, ptr %18) #6
  call void @llvm.lifetime.end.p0(i64 8, ptr %17) #6
  call void @llvm.lifetime.end.p0(i64 8, ptr %16) #6
  %71 = load i32, ptr %8, align 4
  ret i32 %71
}