; Function Attrs: nounwind uwtable
define internal fastcc range(i32 0, 2) i32 @evp_rand_generate_locked(ptr noundef readonly captures(none) %0, ptr noundef %1, i64 noundef %2, i32 noundef %3, i32 noundef %4, ptr noundef %5, i64 noundef %6) unnamed_addr #0 {
  %8 = alloca i64, align 8
  %9 = alloca [2 x %struct.ossl_param_st], align 16
  call void @llvm.lifetime.start.p0(i64 8, ptr nonnull %8) #8
  store i64 0, ptr %8, align 8, !tbaa !51
  call void @llvm.lifetime.start.p0(i64 80, ptr nonnull %9) #8
  call void @OSSL_PARAM_construct_size_t(ptr dead_on_unwind nonnull writable sret(%struct.ossl_param_st) align 8 %9, ptr noundef nonnull @.str.2, ptr noundef nonnull %8) #8
  %10 = getelementptr inbounds nuw i8, ptr %9, i64 40
  call void @llvm.memset.p0.i64(ptr noundef nonnull align 8 dereferenceable(40) %10, i8 0, i64 40, i1 false)
  %.val = load ptr, ptr %0, align 8, !tbaa !3
  %11 = getelementptr i8, ptr %0, i64 8
  %.val21 = load ptr, ptr %11, align 8, !tbaa !17
  %12 = getelementptr i8, ptr %.val, i64 160
  %.val.val = load ptr, ptr %12, align 8, !tbaa !43
  %13 = call i32 %.val.val(ptr noundef %.val21, ptr noundef nonnull %9) #8
  %14 = icmp eq i32 %13, 0
  %15 = load i64, ptr %8, align 8
  %16 = icmp eq i64 %15, 0
  %or.cond = select i1 %14, i1 true, i1 %16
  br i1 %or.cond, label %.loopexit.sink.split, label %.preheader

.preheader:                                       ; preds = %7
  %.not22 = icmp eq i64 %2, 0
  br i1 %.not22, label %.loopexit, label %.lr.ph

.lr.ph:                                           ; preds = %.preheader, %24
  %.01725 = phi ptr [ %26, %24 ], [ %1, %.preheader ]
  %.01824 = phi i64 [ %25, %24 ], [ %2, %.preheader ]
  %.01923 = phi i32 [ 0, %24 ], [ %4, %.preheader ]
  %17 = load i64, ptr %8, align 8, !tbaa !51
  %18 = call i64 @llvm.umin.i64(i64 %.01824, i64 %17)
  %19 = load ptr, ptr %0, align 8, !tbaa !3
  %20 = getelementptr inbounds nuw i8, ptr %19, i64 80
  %21 = load ptr, ptr %20, align 8, !tbaa !34
  %22 = load ptr, ptr %11, align 8, !tbaa !17
  %23 = call i32 %21(ptr noundef %22, ptr noundef %.01725, i64 noundef %18, i32 noundef %3, i32 noundef %.01923, ptr noundef %5, i64 noundef %6) #8
  %.not20 = icmp eq i32 %23, 0
  br i1 %.not20, label %.loopexit.sink.split, label %24

24:                                               ; preds = %.lr.ph
  %25 = sub i64 %.01824, %18
  %26 = getelementptr inbounds nuw i8, ptr %.01725, i64 %18
  %.not = icmp eq i64 %25, 0
  br i1 %.not, label %.loopexit, label %.lr.ph, !llvm.loop !53

.loopexit.sink.split:                             ; preds = %.lr.ph, %7
  %.sink26 = phi i32 [ 565, %7 ], [ 572, %.lr.ph ]
  %.sink = phi i32 [ 215, %7 ], [ 214, %.lr.ph ]
  call void @ERR_new() #8
  call void @ERR_set_debug(ptr noundef nonnull @.str, i32 noundef %.sink26, ptr noundef nonnull @__func__.evp_rand_generate_locked) #8
  call void (i32, i32, ptr, ...) @ERR_set_error(i32 noundef 6, i32 noundef %.sink, ptr noundef null) #8
  br label %.loopexit

.loopexit:                                        ; preds = %24, %.loopexit.sink.split, %.preheader
  %.0 = phi i32 [ 1, %.preheader ], [ 0, %.loopexit.sink.split ], [ 1, %24 ]
  call void @llvm.lifetime.end.p0(i64 80, ptr nonnull %9) #8
  call void @llvm.lifetime.end.p0(i64 8, ptr nonnull %8) #8
  ret i32 %.0
}